ARM GAS  /tmp/cc3N5p9L.s 			page 1


   1              		.cpu cortex-m3
   2              		.eabi_attribute 20, 1
   3              		.eabi_attribute 21, 1
   4              		.eabi_attribute 23, 3
   5              		.eabi_attribute 24, 1
   6              		.eabi_attribute 25, 1
   7              		.eabi_attribute 26, 1
   8              		.eabi_attribute 30, 1
   9              		.eabi_attribute 34, 1
  10              		.eabi_attribute 18, 4
  11              		.file	"common.c"
  12              		.text
  13              	.Ltext0:
  14              		.cfi_sections	.debug_frame
  15              		.section	.text.delayus,"ax",%progbits
  16              		.align	1
  17              		.global	delayus
  18              		.syntax unified
  19              		.thumb
  20              		.thumb_func
  21              		.fpu softvfp
  23              	delayus:
  24              	.LFB65:
  25              		.file 1 "../driver/common.c"
   1:../driver/common.c **** /**
   2:../driver/common.c ****  * 公共库函数.
   3:../driver/common.c ****  */
   4:../driver/common.c **** 
   5:../driver/common.c **** #include "stm32f1xx_hal.h"
   6:../driver/common.c **** 
   7:../driver/common.c **** #include "common.h"
   8:../driver/common.c **** 
   9:../driver/common.c **** uint32_t delayus(uint32_t us)
  10:../driver/common.c **** {
  26              		.loc 1 10 0
  27              		.cfi_startproc
  28              		@ args = 0, pretend = 0, frame = 0
  29              		@ frame_needed = 0, uses_anonymous_args = 0
  30              	.LVL0:
  31 0000 70B5     		push	{r4, r5, r6, lr}
  32              	.LCFI0:
  33              		.cfi_def_cfa_offset 16
  34              		.cfi_offset 4, -16
  35              		.cfi_offset 5, -12
  36              		.cfi_offset 6, -8
  37              		.cfi_offset 14, -4
  11:../driver/common.c ****     uint32_t startms;
  12:../driver/common.c ****     int32_t startval;
  13:../driver/common.c ****     uint32_t endms;
  14:../driver/common.c ****     int32_t endval;
  15:../driver/common.c ****     uint32_t timeus;
  16:../driver/common.c **** 
  17:../driver/common.c ****     if (0 == us)
  38              		.loc 1 17 0
  39 0002 0446     		mov	r4, r0
  40 0004 08B9     		cbnz	r0, .L5
  41              	.LVL1:
ARM GAS  /tmp/cc3N5p9L.s 			page 2


  42              	.L2:
  18:../driver/common.c ****     {
  19:../driver/common.c ****         return 0;
  20:../driver/common.c ****     }
  21:../driver/common.c **** 
  22:../driver/common.c ****     startms = HAL_GetTick();
  23:../driver/common.c ****     startval = SysTick->VAL;
  24:../driver/common.c **** 
  25:../driver/common.c ****     do
  26:../driver/common.c ****     {
  27:../driver/common.c ****         endms = HAL_GetTick();
  28:../driver/common.c ****         endval = SysTick->VAL;
  29:../driver/common.c ****         timeus = (endms - startms) * 1000 + (startval - endval) / 72;
  30:../driver/common.c ****     } while (timeus < us);
  31:../driver/common.c **** 
  32:../driver/common.c ****     return timeus;
  33:../driver/common.c **** }
  43              		.loc 1 33 0
  44 0006 2046     		mov	r0, r4
  45 0008 70BD     		pop	{r4, r5, r6, pc}
  46              	.LVL2:
  47              	.L5:
  22:../driver/common.c ****     startval = SysTick->VAL;
  48              		.loc 1 22 0
  49 000a FFF7FEFF 		bl	HAL_GetTick
  50              	.LVL3:
  51 000e 0646     		mov	r6, r0
  52              	.LVL4:
  23:../driver/common.c **** 
  53              		.loc 1 23 0
  54 0010 0A4B     		ldr	r3, .L6
  55 0012 9D68     		ldr	r5, [r3, #8]
  56              	.LVL5:
  57              	.L3:
  27:../driver/common.c ****         endval = SysTick->VAL;
  58              		.loc 1 27 0 discriminator 1
  59 0014 FFF7FEFF 		bl	HAL_GetTick
  60              	.LVL6:
  28:../driver/common.c ****         timeus = (endms - startms) * 1000 + (startval - endval) / 72;
  61              		.loc 1 28 0 discriminator 1
  62 0018 084B     		ldr	r3, .L6
  63 001a 9B68     		ldr	r3, [r3, #8]
  64              	.LVL7:
  29:../driver/common.c ****     } while (timeus < us);
  65              		.loc 1 29 0 discriminator 1
  66 001c 801B     		subs	r0, r0, r6
  67              	.LVL8:
  68 001e EB1A     		subs	r3, r5, r3
  69              	.LVL9:
  70 0020 074A     		ldr	r2, .L6+4
  71 0022 82FB0312 		smull	r1, r2, r2, r3
  72 0026 DB17     		asrs	r3, r3, #31
  73 0028 C3EB2213 		rsb	r3, r3, r2, asr #4
  74 002c 4FF47A72 		mov	r2, #1000
  75 0030 02FB0033 		mla	r3, r2, r0, r3
  76              	.LVL10:
  30:../driver/common.c **** 
ARM GAS  /tmp/cc3N5p9L.s 			page 3


  77              		.loc 1 30 0 discriminator 1
  78 0034 9C42     		cmp	r4, r3
  79 0036 EDD8     		bhi	.L3
  32:../driver/common.c **** }
  80              		.loc 1 32 0
  81 0038 1C46     		mov	r4, r3
  82              	.LVL11:
  83 003a E4E7     		b	.L2
  84              	.L7:
  85              		.align	2
  86              	.L6:
  87 003c 10E000E0 		.word	-536813552
  88 0040 398EE338 		.word	954437177
  89              		.cfi_endproc
  90              	.LFE65:
  92              		.text
  93              	.Letext0:
  94              		.file 2 "/usr/include/newlib/machine/_default_types.h"
  95              		.file 3 "/usr/include/newlib/sys/_stdint.h"
  96              		.file 4 "Drivers/CMSIS/Include/core_cm3.h"
  97              		.file 5 "Drivers/CMSIS/Device/ST/STM32F1xx/Include/system_stm32f1xx.h"
  98              		.file 6 "Drivers/STM32F1xx_HAL_Driver/Inc/stm32f1xx_hal.h"
ARM GAS  /tmp/cc3N5p9L.s 			page 4

