ARM GAS  /tmp/cc2D5gZX.s 			page 1


   1              		.cpu cortex-m3
   2              		.eabi_attribute 20, 1
   3              		.eabi_attribute 21, 1
   4              		.eabi_attribute 23, 3
   5              		.eabi_attribute 24, 1
   6              		.eabi_attribute 25, 1
   7              		.eabi_attribute 26, 1
   8              		.eabi_attribute 30, 1
   9              		.eabi_attribute 34, 1
  10              		.eabi_attribute 18, 4
  11              		.file	"gpio.c"
  12              		.text
  13              	.Ltext0:
  14              		.cfi_sections	.debug_frame
  15              		.section	.text.MX_GPIO_Init,"ax",%progbits
  16              		.align	1
  17              		.global	MX_GPIO_Init
  18              		.syntax unified
  19              		.thumb
  20              		.thumb_func
  21              		.fpu softvfp
  23              	MX_GPIO_Init:
  24              	.LFB65:
  25              		.file 1 "Src/gpio.c"
   1:Src/gpio.c    **** /**
   2:Src/gpio.c    ****   ******************************************************************************
   3:Src/gpio.c    ****   * File Name          : gpio.c
   4:Src/gpio.c    ****   * Description        : This file provides code for the configuration
   5:Src/gpio.c    ****   *                      of all used GPIO pins.
   6:Src/gpio.c    ****   ******************************************************************************
   7:Src/gpio.c    ****   * @attention
   8:Src/gpio.c    ****   *
   9:Src/gpio.c    ****   * <h2><center>&copy; Copyright (c) 2019 STMicroelectronics.
  10:Src/gpio.c    ****   * All rights reserved.</center></h2>
  11:Src/gpio.c    ****   *
  12:Src/gpio.c    ****   * This software component is licensed by ST under BSD 3-Clause license,
  13:Src/gpio.c    ****   * the "License"; You may not use this file except in compliance with the
  14:Src/gpio.c    ****   * License. You may obtain a copy of the License at:
  15:Src/gpio.c    ****   *                        opensource.org/licenses/BSD-3-Clause
  16:Src/gpio.c    ****   *
  17:Src/gpio.c    ****   ******************************************************************************
  18:Src/gpio.c    ****   */
  19:Src/gpio.c    **** 
  20:Src/gpio.c    **** /* Includes ------------------------------------------------------------------*/
  21:Src/gpio.c    **** #include "gpio.h"
  22:Src/gpio.c    **** /* USER CODE BEGIN 0 */
  23:Src/gpio.c    **** 
  24:Src/gpio.c    **** /* USER CODE END 0 */
  25:Src/gpio.c    **** 
  26:Src/gpio.c    **** /*----------------------------------------------------------------------------*/
  27:Src/gpio.c    **** /* Configure GPIO                                                             */
  28:Src/gpio.c    **** /*----------------------------------------------------------------------------*/
  29:Src/gpio.c    **** /* USER CODE BEGIN 1 */
  30:Src/gpio.c    **** 
  31:Src/gpio.c    **** /* USER CODE END 1 */
  32:Src/gpio.c    **** 
  33:Src/gpio.c    **** /** Configure pins as 
ARM GAS  /tmp/cc2D5gZX.s 			page 2


  34:Src/gpio.c    ****         * Analog 
  35:Src/gpio.c    ****         * Input 
  36:Src/gpio.c    ****         * Output
  37:Src/gpio.c    ****         * EVENT_OUT
  38:Src/gpio.c    ****         * EXTI
  39:Src/gpio.c    **** */
  40:Src/gpio.c    **** void MX_GPIO_Init(void)
  41:Src/gpio.c    **** {
  26              		.loc 1 41 0
  27              		.cfi_startproc
  28              		@ args = 0, pretend = 0, frame = 32
  29              		@ frame_needed = 0, uses_anonymous_args = 0
  30 0000 2DE9F041 		push	{r4, r5, r6, r7, r8, lr}
  31              	.LCFI0:
  32              		.cfi_def_cfa_offset 24
  33              		.cfi_offset 4, -24
  34              		.cfi_offset 5, -20
  35              		.cfi_offset 6, -16
  36              		.cfi_offset 7, -12
  37              		.cfi_offset 8, -8
  38              		.cfi_offset 14, -4
  39 0004 88B0     		sub	sp, sp, #32
  40              	.LCFI1:
  41              		.cfi_def_cfa_offset 56
  42:Src/gpio.c    **** 
  43:Src/gpio.c    ****   GPIO_InitTypeDef GPIO_InitStruct = {0};
  42              		.loc 1 43 0
  43 0006 0024     		movs	r4, #0
  44 0008 0494     		str	r4, [sp, #16]
  45 000a 0594     		str	r4, [sp, #20]
  46 000c 0694     		str	r4, [sp, #24]
  47 000e 0794     		str	r4, [sp, #28]
  48              	.LBB2:
  44:Src/gpio.c    **** 
  45:Src/gpio.c    ****   /* GPIO Ports Clock Enable */
  46:Src/gpio.c    ****   __HAL_RCC_GPIOD_CLK_ENABLE();
  49              		.loc 1 46 0
  50 0010 2C4B     		ldr	r3, .L3
  51 0012 9A69     		ldr	r2, [r3, #24]
  52 0014 42F02002 		orr	r2, r2, #32
  53 0018 9A61     		str	r2, [r3, #24]
  54 001a 9A69     		ldr	r2, [r3, #24]
  55 001c 02F02002 		and	r2, r2, #32
  56 0020 0192     		str	r2, [sp, #4]
  57 0022 019A     		ldr	r2, [sp, #4]
  58              	.LBE2:
  59              	.LBB3:
  47:Src/gpio.c    ****   __HAL_RCC_GPIOA_CLK_ENABLE();
  60              		.loc 1 47 0
  61 0024 9A69     		ldr	r2, [r3, #24]
  62 0026 42F00402 		orr	r2, r2, #4
  63 002a 9A61     		str	r2, [r3, #24]
  64 002c 9A69     		ldr	r2, [r3, #24]
  65 002e 02F00402 		and	r2, r2, #4
  66 0032 0292     		str	r2, [sp, #8]
  67 0034 029A     		ldr	r2, [sp, #8]
  68              	.LBE3:
ARM GAS  /tmp/cc2D5gZX.s 			page 3


  69              	.LBB4:
  48:Src/gpio.c    ****   __HAL_RCC_GPIOB_CLK_ENABLE();
  70              		.loc 1 48 0
  71 0036 9A69     		ldr	r2, [r3, #24]
  72 0038 42F00802 		orr	r2, r2, #8
  73 003c 9A61     		str	r2, [r3, #24]
  74 003e 9B69     		ldr	r3, [r3, #24]
  75 0040 03F00803 		and	r3, r3, #8
  76 0044 0393     		str	r3, [sp, #12]
  77 0046 039B     		ldr	r3, [sp, #12]
  78              	.LBE4:
  49:Src/gpio.c    **** 
  50:Src/gpio.c    ****   /*Configure GPIO pin Output Level */
  51:Src/gpio.c    ****   HAL_GPIO_WritePin(GPIOA, LED_Pin|HC_SR04_TRIG_Pin|MOTOR_LEFT_Pin, GPIO_PIN_RESET);
  79              		.loc 1 51 0
  80 0048 1F4D     		ldr	r5, .L3+4
  81 004a 2246     		mov	r2, r4
  82 004c 9221     		movs	r1, #146
  83 004e 2846     		mov	r0, r5
  84 0050 FFF7FEFF 		bl	HAL_GPIO_WritePin
  85              	.LVL0:
  52:Src/gpio.c    **** 
  53:Src/gpio.c    ****   /*Configure GPIO pin Output Level */
  54:Src/gpio.c    ****   HAL_GPIO_WritePin(MOTOR_RIGHT_GPIO_Port, MOTOR_RIGHT_Pin, GPIO_PIN_RESET);
  86              		.loc 1 54 0
  87 0054 DFF87880 		ldr	r8, .L3+12
  88 0058 2246     		mov	r2, r4
  89 005a 0221     		movs	r1, #2
  90 005c 4046     		mov	r0, r8
  91 005e FFF7FEFF 		bl	HAL_GPIO_WritePin
  92              	.LVL1:
  55:Src/gpio.c    **** 
  56:Src/gpio.c    ****   /*Configure GPIO pins : PAPin PAPin PAPin */
  57:Src/gpio.c    ****   GPIO_InitStruct.Pin = LED_Pin|HC_SR04_TRIG_Pin|MOTOR_LEFT_Pin;
  93              		.loc 1 57 0
  94 0062 9223     		movs	r3, #146
  95 0064 0493     		str	r3, [sp, #16]
  58:Src/gpio.c    ****   GPIO_InitStruct.Mode = GPIO_MODE_OUTPUT_PP;
  96              		.loc 1 58 0
  97 0066 0127     		movs	r7, #1
  98 0068 0597     		str	r7, [sp, #20]
  59:Src/gpio.c    ****   GPIO_InitStruct.Pull = GPIO_NOPULL;
  99              		.loc 1 59 0
 100 006a 0694     		str	r4, [sp, #24]
  60:Src/gpio.c    ****   GPIO_InitStruct.Speed = GPIO_SPEED_FREQ_LOW;
 101              		.loc 1 60 0
 102 006c 0226     		movs	r6, #2
 103 006e 0796     		str	r6, [sp, #28]
  61:Src/gpio.c    ****   HAL_GPIO_Init(GPIOA, &GPIO_InitStruct);
 104              		.loc 1 61 0
 105 0070 04A9     		add	r1, sp, #16
 106 0072 2846     		mov	r0, r5
 107 0074 FFF7FEFF 		bl	HAL_GPIO_Init
 108              	.LVL2:
  62:Src/gpio.c    **** 
  63:Src/gpio.c    ****   /*Configure GPIO pin : PtPin */
  64:Src/gpio.c    ****   GPIO_InitStruct.Pin = HC_SR04_ECHO_Pin;
ARM GAS  /tmp/cc2D5gZX.s 			page 4


 109              		.loc 1 64 0
 110 0078 2023     		movs	r3, #32
 111 007a 0493     		str	r3, [sp, #16]
  65:Src/gpio.c    ****   GPIO_InitStruct.Mode = GPIO_MODE_INPUT;
 112              		.loc 1 65 0
 113 007c 0594     		str	r4, [sp, #20]
  66:Src/gpio.c    ****   GPIO_InitStruct.Pull = GPIO_PULLDOWN;
 114              		.loc 1 66 0
 115 007e 0696     		str	r6, [sp, #24]
  67:Src/gpio.c    ****   HAL_GPIO_Init(HC_SR04_ECHO_GPIO_Port, &GPIO_InitStruct);
 116              		.loc 1 67 0
 117 0080 04A9     		add	r1, sp, #16
 118 0082 2846     		mov	r0, r5
 119 0084 FFF7FEFF 		bl	HAL_GPIO_Init
 120              	.LVL3:
  68:Src/gpio.c    **** 
  69:Src/gpio.c    ****   /*Configure GPIO pin : PtPin */
  70:Src/gpio.c    ****   GPIO_InitStruct.Pin = MOTOR_RIGHT_Pin;
 121              		.loc 1 70 0
 122 0088 0496     		str	r6, [sp, #16]
  71:Src/gpio.c    ****   GPIO_InitStruct.Mode = GPIO_MODE_OUTPUT_PP;
 123              		.loc 1 71 0
 124 008a 0597     		str	r7, [sp, #20]
  72:Src/gpio.c    ****   GPIO_InitStruct.Pull = GPIO_NOPULL;
 125              		.loc 1 72 0
 126 008c 0694     		str	r4, [sp, #24]
  73:Src/gpio.c    ****   GPIO_InitStruct.Speed = GPIO_SPEED_FREQ_LOW;
 127              		.loc 1 73 0
 128 008e 0796     		str	r6, [sp, #28]
  74:Src/gpio.c    ****   HAL_GPIO_Init(MOTOR_RIGHT_GPIO_Port, &GPIO_InitStruct);
 129              		.loc 1 74 0
 130 0090 04A9     		add	r1, sp, #16
 131 0092 4046     		mov	r0, r8
 132 0094 FFF7FEFF 		bl	HAL_GPIO_Init
 133              	.LVL4:
  75:Src/gpio.c    **** 
  76:Src/gpio.c    ****   /*Configure GPIO pin : PtPin */
  77:Src/gpio.c    ****   GPIO_InitStruct.Pin = KEY_Pin;
 134              		.loc 1 77 0
 135 0098 4FF48073 		mov	r3, #256
 136 009c 0493     		str	r3, [sp, #16]
  78:Src/gpio.c    ****   GPIO_InitStruct.Mode = GPIO_MODE_IT_FALLING;
 137              		.loc 1 78 0
 138 009e 0B4B     		ldr	r3, .L3+8
 139 00a0 0593     		str	r3, [sp, #20]
  79:Src/gpio.c    ****   GPIO_InitStruct.Pull = GPIO_PULLUP;
 140              		.loc 1 79 0
 141 00a2 0697     		str	r7, [sp, #24]
  80:Src/gpio.c    ****   HAL_GPIO_Init(KEY_GPIO_Port, &GPIO_InitStruct);
 142              		.loc 1 80 0
 143 00a4 04A9     		add	r1, sp, #16
 144 00a6 2846     		mov	r0, r5
 145 00a8 FFF7FEFF 		bl	HAL_GPIO_Init
 146              	.LVL5:
  81:Src/gpio.c    **** 
  82:Src/gpio.c    ****   /* EXTI interrupt init*/
  83:Src/gpio.c    ****   HAL_NVIC_SetPriority(EXTI9_5_IRQn, 0, 0);
ARM GAS  /tmp/cc2D5gZX.s 			page 5


 147              		.loc 1 83 0
 148 00ac 2246     		mov	r2, r4
 149 00ae 2146     		mov	r1, r4
 150 00b0 1720     		movs	r0, #23
 151 00b2 FFF7FEFF 		bl	HAL_NVIC_SetPriority
 152              	.LVL6:
  84:Src/gpio.c    ****   HAL_NVIC_EnableIRQ(EXTI9_5_IRQn);
 153              		.loc 1 84 0
 154 00b6 1720     		movs	r0, #23
 155 00b8 FFF7FEFF 		bl	HAL_NVIC_EnableIRQ
 156              	.LVL7:
  85:Src/gpio.c    **** 
  86:Src/gpio.c    **** }
 157              		.loc 1 86 0
 158 00bc 08B0     		add	sp, sp, #32
 159              	.LCFI2:
 160              		.cfi_def_cfa_offset 24
 161              		@ sp needed
 162 00be BDE8F081 		pop	{r4, r5, r6, r7, r8, pc}
 163              	.L4:
 164 00c2 00BF     		.align	2
 165              	.L3:
 166 00c4 00100240 		.word	1073876992
 167 00c8 00080140 		.word	1073809408
 168 00cc 00002110 		.word	270598144
 169 00d0 000C0140 		.word	1073810432
 170              		.cfi_endproc
 171              	.LFE65:
 173              		.text
 174              	.Letext0:
 175              		.file 2 "/usr/include/newlib/machine/_default_types.h"
 176              		.file 3 "/usr/include/newlib/sys/_stdint.h"
 177              		.file 4 "Drivers/CMSIS/Include/core_cm3.h"
 178              		.file 5 "Drivers/CMSIS/Device/ST/STM32F1xx/Include/system_stm32f1xx.h"
 179              		.file 6 "Drivers/CMSIS/Device/ST/STM32F1xx/Include/stm32f103xb.h"
 180              		.file 7 "Drivers/STM32F1xx_HAL_Driver/Inc/stm32f1xx_hal_gpio.h"
 181              		.file 8 "Drivers/STM32F1xx_HAL_Driver/Inc/stm32f1xx_hal.h"
 182              		.file 9 "Drivers/STM32F1xx_HAL_Driver/Inc/stm32f1xx_hal_cortex.h"
ARM GAS  /tmp/cc2D5gZX.s 			page 6

